; Function Attrs: mustprogress uwtable
define noundef zeroext i1 @_ZNK8QuantLib6Poland7WseImpl13isBusinessDayERKNS_4DateE(ptr noundef nonnull align 8 dereferenceable(104) %this, ptr noundef nonnull align 8 dereferenceable(8) %date) unnamed_addr #0 align 2 {
entry:
  %0 = load i64, ptr %date, align 8, !tbaa !44
  %call.i.i = tail call noundef i32 @_ZNK8QuantLib4Date4yearEv(ptr noundef nonnull align 8 dereferenceable(8) %date)
  %call2.i.i = tail call noundef i64 @_ZN8QuantLib4Date10yearOffsetEi(i32 noundef %call.i.i)
  %sub.i.i = sub nsw i64 %0, %call2.i.i
  %conv.i.i = trunc i64 %sub.i.i to i32
  %call2.i = tail call noundef i32 @_ZNK8QuantLib4Date5monthEv(ptr noundef nonnull align 8 dereferenceable(8) %date)
  %call3.i = tail call noundef i32 @_ZNK8QuantLib4Date4yearEv(ptr noundef nonnull align 8 dereferenceable(8) %date)
  %call4.i = tail call noundef zeroext i1 @_ZN8QuantLib4Date6isLeapEi(i32 noundef %call3.i)
  %call5.i = tail call noundef i32 @_ZN8QuantLib4Date11monthOffsetENS_5MonthEb(i32 noundef %call2.i, i1 noundef zeroext %call4.i)
  %sub.i = sub nsw i32 %conv.i.i, %call5.i
  %call2 = tail call noundef i32 @_ZNK8QuantLib4Date5monthEv(ptr noundef nonnull align 8 dereferenceable(8) %date)
  %cmp = icmp eq i32 %sub.i, 24
  %cmp3 = icmp eq i32 %call2, 12
  %cmp4 = icmp eq i32 %sub.i, 31
  %or.cond7 = or i1 %cmp, %cmp4
  %or.cond6 = and i1 %cmp3, %or.cond7
  br i1 %or.cond6, label %cleanup, label %if.end

if.end:                                           ; preds = %entry
  %call7 = tail call noundef zeroext i1 @_ZNK8QuantLib6Poland14SettlementImpl13isBusinessDayERKNS_4DateE(ptr noundef nonnull align 8 dereferenceable(104) %this, ptr noundef nonnull align 8 dereferenceable(8) %date)
  br label %cleanup

cleanup:                                          ; preds = %entry, %if.end
  %retval.0 = phi i1 [ %call7, %if.end ], [ false, %entry ]
  ret i1 %retval.0
}